target datalayout = "e-m:e-p270:32:32-p271:32:32-p272:64:64-i64:64-i128:128-f80:128-n8:16:32:64-S128"
target triple = "x86_64-pc-linux-gnu"

@.str = private unnamed_addr constant [11 x i8] c" because \22\00", align 1
@.str.4 = private unnamed_addr constant [10 x i8] c"\22 is null\00", align 1

; Function Attrs: mustprogress nounwind uwtable
define hidden noundef zeroext i1 @_ZN23ExceptionMessageBuilder15print_NPE_causeEP12outputStreamii(ptr noundef nonnull align 8 dereferenceable(22) %0, ptr noundef %1, i32 noundef %2, i32 noundef %3) #1 align 2 {
  %5 = alloca i1, align 1
  %6 = alloca ptr, align 8
  %7 = alloca ptr, align 8
  %8 = alloca i32, align 4
  %9 = alloca i32, align 4
  store ptr %0, ptr %6, align 8
  store ptr %1, ptr %7, align 8
  store i32 %2, ptr %8, align 4
  store i32 %3, ptr %9, align 4
  %10 = load ptr, ptr %6, align 8
  %11 = load ptr, ptr %7, align 8
  %12 = load i32, ptr %8, align 4
  %13 = load i32, ptr %9, align 4
  %14 = call noundef zeroext i1 @_ZN23ExceptionMessageBuilder16print_NPE_cause0EP12outputStreamiiibPKc(ptr noundef nonnull align 8 dereferenceable(22) %10, ptr noundef %11, i32 noundef %12, i32 noundef %13, i32 noundef 5, i1 noundef zeroext false, ptr noundef @.str)
  br i1 %14, label %15, label %17

15:                                               ; preds = %4
  %16 = load ptr, ptr %7, align 8
  call void (ptr, ptr, ...) @_ZN12outputStream5printEPKcz(ptr noundef nonnull align 8 dereferenceable(56) %16, ptr noundef @.str.4)
  store i1 true, ptr %5, align 1
  br label %18

17:                                               ; preds = %4
  store i1 false, ptr %5, align 1
  br label %18

18:                                               ; preds = %17, %15
  %19 = load i1, ptr %5, align 1
  ret i1 %19
}