; Function Attrs: mustprogress nounwind uwtable
define hidden noundef zeroext i1 @_ZN23ExceptionMessageBuilder15print_NPE_causeEP12outputStreamii(ptr noundef nonnull align 8 dereferenceable(22) %0, ptr noundef %1, i32 noundef %2, i32 noundef %3) local_unnamed_addr #2 align 2 {
  %5 = tail call noundef zeroext i1 @_ZN23ExceptionMessageBuilder16print_NPE_cause0EP12outputStreamiiibPKc(ptr noundef nonnull align 8 dereferenceable(22) %0, ptr noundef %1, i32 noundef %2, i32 noundef %3, i32 noundef 5, i1 noundef zeroext false, ptr noundef nonnull @.str)
  br i1 %5, label %6, label %7

6:                                                ; preds = %4
  tail call void (ptr, ptr, ...) @_ZN12outputStream5printEPKcz(ptr noundef nonnull align 8 dereferenceable(56) %1, ptr noundef nonnull @.str.4) #11
  br label %7

7:                                                ; preds = %4, %6
  ret i1 %5
}